target datalayout = "e-m:e-p270:32:32-p271:32:32-p272:64:64-i64:64-i128:128-f80:128-n8:16:32:64-S128"
target triple = "x86_64-unknown-linux-gnu"

%struct.QObjectInputVisitor = type { %struct.Visitor, ptr, i8, %struct.anon, ptr }
%struct.Visitor = type { ptr, ptr, ptr, ptr, ptr, ptr, ptr, ptr, ptr, ptr, ptr, ptr, ptr, ptr, ptr, ptr, ptr, ptr, ptr, ptr, i32, %struct.CompatPolicy, ptr, ptr }
%struct.CompatPolicy = type { i8, i32, i8, i32, i8, i32, i8, i32 }
%struct.anon = type { ptr }
%struct._GHashTableIter = type { ptr, ptr, ptr, i32, i32, ptr }
%struct.StackObject = type { ptr, ptr, ptr, ptr, ptr, i32, %struct.anon.1 }
%struct.anon.1 = type { ptr }

@.str.1 = private unnamed_addr constant [37 x i8] c"../qemu/qapi/qobject-input-visitor.c\00", align 1
@.str.20 = private unnamed_addr constant [19 x i8] c"tos && !tos->entry\00", align 1
@__PRETTY_FUNCTION__.qobject_input_check_struct = private unnamed_addr constant [54 x i8] c"_Bool qobject_input_check_struct(Visitor *, Error **)\00", align 1
@__func__.qobject_input_check_struct = private unnamed_addr constant [27 x i8] c"qobject_input_check_struct\00", align 1
@.str.21 = private unnamed_addr constant [29 x i8] c"Parameter '%s' is unexpected\00", align 1

; Function Attrs: nounwind sspstrong uwtable
define internal ptr @full_name(ptr noundef %qiv, ptr noundef %name) #0 {
entry:
  %qiv.addr = alloca ptr, align 8
  %name.addr = alloca ptr, align 8
  store ptr %qiv, ptr %qiv.addr, align 8
  store ptr %name, ptr %name.addr, align 8
  %0 = load ptr, ptr %qiv.addr, align 8
  %1 = load ptr, ptr %name.addr, align 8
  %call = call ptr @full_name_nth(ptr noundef %0, ptr noundef %1, i32 noundef 0)
  ret ptr %call
}

; Function Attrs: nounwind sspstrong uwtable
define internal ptr @to_qiv(ptr noundef %v) #0 {
entry:
  %v.addr = alloca ptr, align 8
  %__mptr = alloca ptr, align 8
  %tmp = alloca ptr, align 8
  store ptr %v, ptr %v.addr, align 8
  %0 = load ptr, ptr %v.addr, align 8
  store ptr %0, ptr %__mptr, align 8
  %1 = load ptr, ptr %__mptr, align 8
  %add.ptr = getelementptr i8, ptr %1, i64 0
  store ptr %add.ptr, ptr %tmp, align 8
  %2 = load ptr, ptr %tmp, align 8
  ret ptr %2
}

; Function Attrs: nounwind sspstrong uwtable
define internal zeroext i1 @qobject_input_check_struct(ptr noundef %v, ptr noundef %errp) #0 {
entry:
  %retval = alloca i1, align 1
  %v.addr = alloca ptr, align 8
  %errp.addr = alloca ptr, align 8
  %qiv = alloca ptr, align 8
  %tos = alloca ptr, align 8
  %iter = alloca %struct._GHashTableIter, align 8
  %key = alloca ptr, align 8
  store ptr %v, ptr %v.addr, align 8
  store ptr %errp, ptr %errp.addr, align 8
  %0 = load ptr, ptr %v.addr, align 8
  %call = call ptr @to_qiv(ptr noundef %0)
  store ptr %call, ptr %qiv, align 8
  %1 = load ptr, ptr %qiv, align 8
  %stack = getelementptr inbounds %struct.QObjectInputVisitor, ptr %1, i32 0, i32 3
  %slh_first = getelementptr inbounds %struct.anon, ptr %stack, i32 0, i32 0
  %2 = load ptr, ptr %slh_first, align 8
  store ptr %2, ptr %tos, align 8
  %3 = load ptr, ptr %tos, align 8
  %tobool = icmp ne ptr %3, null
  br i1 %tobool, label %land.lhs.true, label %if.else

land.lhs.true:                                    ; preds = %entry
  %4 = load ptr, ptr %tos, align 8
  %entry1 = getelementptr inbounds %struct.StackObject, ptr %4, i32 0, i32 4
  %5 = load ptr, ptr %entry1, align 8
  %tobool2 = icmp ne ptr %5, null
  br i1 %tobool2, label %if.else, label %if.then

if.then:                                          ; preds = %land.lhs.true
  br label %if.end

if.else:                                          ; preds = %land.lhs.true, %entry
  call void @__assert_fail(ptr noundef @.str.20, ptr noundef @.str.1, i32 noundef 248, ptr noundef @__PRETTY_FUNCTION__.qobject_input_check_struct) #7
  unreachable

if.end:                                           ; preds = %if.then
  %6 = load ptr, ptr %tos, align 8
  %h = getelementptr inbounds %struct.StackObject, ptr %6, i32 0, i32 3
  %7 = load ptr, ptr %h, align 8
  call void @g_hash_table_iter_init(ptr noundef %iter, ptr noundef %7)
  %call3 = call i32 @g_hash_table_iter_next(ptr noundef %iter, ptr noundef %key, ptr noundef null)
  %tobool4 = icmp ne i32 %call3, 0
  br i1 %tobool4, label %if.then5, label %if.end7

if.then5:                                         ; preds = %if.end
  %8 = load ptr, ptr %errp.addr, align 8
  %9 = load ptr, ptr %qiv, align 8
  %10 = load ptr, ptr %key, align 8
  %call6 = call ptr @full_name(ptr noundef %9, ptr noundef %10)
  call void (ptr, ptr, i32, ptr, ptr, ...) @error_setg_internal(ptr noundef %8, ptr noundef @.str.1, i32 noundef 253, ptr noundef @__func__.qobject_input_check_struct, ptr noundef @.str.21, ptr noundef %call6)
  store i1 false, ptr %retval, align 1
  br label %return

if.end7:                                          ; preds = %if.end
  store i1 true, ptr %retval, align 1
  br label %return

return:                                           ; preds = %if.end7, %if.then5
  %11 = load i1, ptr %retval, align 1
  ret i1 %11
}