; Function Attrs: nounwind sspstrong uwtable
define internal noundef zeroext i1 @qobject_input_check_struct(ptr noundef captures(none) %v, ptr noundef %errp) #0 {
entry:
  %iter = alloca %struct._GHashTableIter, align 8
  %key = alloca ptr, align 8
  %stack = getelementptr inbounds nuw i8, ptr %v, i64 232
  %0 = load ptr, ptr %stack, align 8
  %tobool.not = icmp eq ptr %0, null
  br i1 %tobool.not, label %if.else, label %land.lhs.true

land.lhs.true:                                    ; preds = %entry
  %entry1 = getelementptr inbounds nuw i8, ptr %0, i64 32
  %1 = load ptr, ptr %entry1, align 8
  %tobool2.not = icmp eq ptr %1, null
  br i1 %tobool2.not, label %if.end, label %if.else

if.else:                                          ; preds = %land.lhs.true, %entry
  tail call void @__assert_fail(ptr noundef nonnull @.str.20, ptr noundef nonnull @.str.1, i32 noundef 248, ptr noundef nonnull @__PRETTY_FUNCTION__.qobject_input_check_struct) #7
  unreachable

if.end:                                           ; preds = %land.lhs.true
  %h = getelementptr inbounds nuw i8, ptr %0, i64 24
  %2 = load ptr, ptr %h, align 8
  call void @g_hash_table_iter_init(ptr noundef nonnull %iter, ptr noundef %2) #8
  %call3 = call i32 @g_hash_table_iter_next(ptr noundef nonnull %iter, ptr noundef nonnull %key, ptr noundef null) #8
  %tobool4.not = icmp eq i32 %call3, 0
  br i1 %tobool4.not, label %return, label %if.then5

if.then5:                                         ; preds = %if.end
  %3 = load ptr, ptr %key, align 8
  %call.i = call fastcc ptr @full_name_nth(ptr noundef nonnull %v, ptr noundef %3, i32 noundef 0)
  call void (ptr, ptr, i32, ptr, ptr, ...) @error_setg_internal(ptr noundef %errp, ptr noundef nonnull @.str.1, i32 noundef 253, ptr noundef nonnull @__func__.qobject_input_check_struct, ptr noundef nonnull @.str.21, ptr noundef %call.i) #8
  br label %return

return:                                           ; preds = %if.end, %if.then5
  ret i1 %tobool4.not
}